target datalayout = "e-m:e-p270:32:32-p271:32:32-p272:64:64-i64:64-i128:128-f80:128-n8:16:32:64-S128"
target triple = "x86_64-pc-linux-gnu"

%struct.slurm_conf_t = type { i64, ptr, i16, ptr, ptr, ptr, ptr, ptr, i16, ptr, ptr, ptr, ptr, ptr, ptr, ptr, i16, ptr, ptr, ptr, ptr, i16, ptr, ptr, ptr, i64, ptr, ptr, ptr, ptr, i16, ptr, ptr, i16, i32, ptr, i32, ptr, i32, i32, ptr, ptr, i64, i64, ptr, i16, i16, ptr, i32, i32, ptr, i32, ptr, i32, i16, i16, i16, ptr, i16, i16, ptr, ptr, i32, i16, i16, ptr, i32, i16, ptr, ptr, ptr, ptr, i16, ptr, ptr, ptr, ptr, i32, ptr, ptr, ptr, ptr, i16, i16, ptr, i32, i32, i32, i16, i16, ptr, ptr, i16, ptr, ptr, i32, i32, i32, i32, i32, i64, i32, i32, i16, ptr, ptr, i32, ptr, ptr, ptr, i16, i32, ptr, ptr, i16, ptr, ptr, i32, i16, ptr, ptr, ptr, ptr, i32, i32, i16, i16, i32, ptr, i16, ptr, i32, i32, i32, i32, i32, i32, ptr, i16, ptr, ptr, i32, i16, ptr, i32, i16, i16, ptr, ptr, ptr, i16, ptr, ptr, ptr, ptr, i16, i16, ptr, i16, ptr, i16, ptr, i16, ptr, i16, ptr, ptr, ptr, ptr, i16, ptr, ptr, ptr, i32, ptr, i32, ptr, ptr, i16, ptr, ptr, i32, i16, ptr, ptr, i16, i16, ptr, i16, ptr, ptr, ptr, i32, ptr, i16, i16, ptr, ptr, ptr, ptr, ptr, ptr, ptr, ptr, i16, i32, i16, ptr, ptr, ptr, ptr, i32, ptr, ptr, ptr, i16, ptr, ptr, ptr, i16, ptr, i16, ptr, i16, i16, ptr }
%union.pthread_attr_t = type { i64, [48 x i8] }
%struct.slurm_msg = type { %struct.sockaddr_storage, ptr, i32, i32, i32, i8, i32, i8, i32, ptr, ptr, i32, ptr, ptr, i16, i8, i16, i16, %struct.forward, ptr, %struct.sockaddr_storage, ptr }
%struct.forward = type { %struct.slurm_node_alias_addrs_t, i16, i16, ptr, i32, i16, i16 }
%struct.slurm_node_alias_addrs_t = type { i64, ptr, ptr, i32, ptr }
%struct.sockaddr_storage = type { i16, [118 x i8], i64 }

@slurm_conf = external global %struct.slurm_conf_t, align 8
@.str.28 = private unnamed_addr constant [22 x i8] c"pthread_attr_init: %m\00", align 1
@.str.29 = private unnamed_addr constant [26 x i8] c"pthread_attr_setscope: %m\00", align 1
@.str.30 = private unnamed_addr constant [30 x i8] c"pthread_attr_setstacksize: %m\00", align 1
@.str.31 = private unnamed_addr constant [35 x i8] c"%s: pthread_attr_setdetachstate %m\00", align 1
@.str.32 = private unnamed_addr constant [28 x i8] c"%s: pthread_create error %m\00", align 1
@.str.33 = private unnamed_addr constant [55 x i8] c"pthread_attr_destroy failed, possible memory leak!: %m\00", align 1
@dir = internal global ptr @.str.57, align 8
@.str.55 = private unnamed_addr constant [37 x i8] c"%s: failed to write configs to cache\00", align 1
@.str.60 = private unnamed_addr constant [60 x i8] c"%s: [%s] rejecting malformed RPC and closing connection: %s\00", align 1
@__func__._on_msg = private unnamed_addr constant [8 x i8] c"_on_msg\00", align 1
@.str.61 = private unnamed_addr constant [49 x i8] c"%s: [%s] rejecting %s RPC with missing user auth\00", align 1
@.str.62 = private unnamed_addr constant [55 x i8] c"%s: [%s] rejecting %s RPC with user:%u != SlurmUser:%u\00", align 1
@.str.63 = private unnamed_addr constant [32 x i8] c"reconfigure requested by slurmd\00", align 1
@.str.64 = private unnamed_addr constant [31 x i8] c"%s: [%s] unexpected message %u\00", align 1

; Function Attrs: nounwind uwtable
define internal i32 @_on_msg(ptr noundef %0, ptr noundef %1, i32 noundef %2, ptr noundef %3) #0 {
  %5 = alloca i32, align 4
  %6 = alloca ptr, align 8
  %7 = alloca ptr, align 8
  %8 = alloca i32, align 4
  %9 = alloca ptr, align 8
  %10 = alloca i64, align 8
  %11 = alloca %union.pthread_attr_t, align 8
  %12 = alloca i32, align 4
  %13 = alloca i32, align 4
  %14 = alloca i32, align 4
  store ptr %0, ptr %6, align 8
  store ptr %1, ptr %7, align 8
  store i32 %2, ptr %8, align 4
  store ptr %3, ptr %9, align 8
  %15 = load i32, ptr %8, align 4
  %16 = icmp ne i32 %15, 0
  br i1 %16, label %17, label %25

17:                                               ; preds = %4
  %18 = load ptr, ptr %6, align 8
  %19 = call ptr @conmgr_fd_get_name(ptr noundef %18)
  %20 = load i32, ptr %8, align 4
  %21 = call ptr @slurm_strerror(i32 noundef %20)
  %22 = call i32 (ptr, ...) @error(ptr noundef @.str.60, ptr noundef @__func__._on_msg, ptr noundef %19, ptr noundef %21)
  %23 = load ptr, ptr %7, align 8
  call void @slurm_free_msg(ptr noundef %23)
  %24 = load i32, ptr %8, align 4
  store i32 %24, ptr %5, align 4
  br label %147

25:                                               ; preds = %4
  %26 = load ptr, ptr %7, align 8
  %27 = getelementptr inbounds nuw %struct.slurm_msg, ptr %26, i32 0, i32 5
  %28 = load i8, ptr %27, align 4, !range !8, !noundef !9
  %29 = trunc i8 %28 to i1
  br i1 %29, label %39, label %30

30:                                               ; preds = %25
  %31 = load ptr, ptr %6, align 8
  %32 = call ptr @conmgr_fd_get_name(ptr noundef %31)
  %33 = load ptr, ptr %7, align 8
  %34 = getelementptr inbounds nuw %struct.slurm_msg, ptr %33, i32 0, i32 16
  %35 = load i16, ptr %34, align 4
  %36 = call ptr @rpc_num2string(i16 noundef zeroext %35)
  %37 = call i32 (ptr, ...) @error(ptr noundef @.str.61, ptr noundef @__func__._on_msg, ptr noundef %32, ptr noundef %36)
  %38 = load ptr, ptr %7, align 8
  call void @slurm_free_msg(ptr noundef %38)
  store i32 1007, ptr %5, align 4
  br label %147

39:                                               ; preds = %25
  %40 = load ptr, ptr %7, align 8
  %41 = getelementptr inbounds nuw %struct.slurm_msg, ptr %40, i32 0, i32 3
  %42 = load i32, ptr %41, align 4
  %43 = load i32, ptr getelementptr inbounds nuw (%struct.slurm_conf_t, ptr @slurm_conf, i32 0, i32 173), align 8
  %44 = icmp ne i32 %42, %43
  br i1 %44, label %45, label %58

45:                                               ; preds = %39
  %46 = load ptr, ptr %6, align 8
  %47 = call ptr @conmgr_fd_get_name(ptr noundef %46)
  %48 = load ptr, ptr %7, align 8
  %49 = getelementptr inbounds nuw %struct.slurm_msg, ptr %48, i32 0, i32 16
  %50 = load i16, ptr %49, align 4
  %51 = call ptr @rpc_num2string(i16 noundef zeroext %50)
  %52 = load ptr, ptr %7, align 8
  %53 = getelementptr inbounds nuw %struct.slurm_msg, ptr %52, i32 0, i32 3
  %54 = load i32, ptr %53, align 4
  %55 = load i32, ptr getelementptr inbounds nuw (%struct.slurm_conf_t, ptr @slurm_conf, i32 0, i32 173), align 8
  %56 = call i32 (ptr, ...) @error(ptr noundef @.str.62, ptr noundef @__func__._on_msg, ptr noundef %47, ptr noundef %51, i32 noundef %54, i32 noundef %55)
  %57 = load ptr, ptr %7, align 8
  call void @slurm_free_msg(ptr noundef %57)
  store i32 1007, ptr %5, align 4
  br label %147

58:                                               ; preds = %39
  br label %59

59:                                               ; preds = %58
  br label %60

60:                                               ; preds = %59
  %61 = load ptr, ptr %7, align 8
  %62 = getelementptr inbounds nuw %struct.slurm_msg, ptr %61, i32 0, i32 16
  %63 = load i16, ptr %62, align 4
  %64 = zext i16 %63 to i32
  switch i32 %64, label %136 [
    i32 1006, label %65
  ]

65:                                               ; preds = %60
  br label %66

66:                                               ; preds = %65
  br label %67

67:                                               ; preds = %66
  %68 = call i32 @get_log_level()
  %69 = icmp sge i32 %68, 3
  br i1 %69, label %70, label %71

70:                                               ; preds = %67
  call void (i32, ptr, ...) @log_var(i32 noundef 3, ptr noundef @.str.63)
  br label %71

71:                                               ; preds = %70, %67
  br label %72

72:                                               ; preds = %71
  br label %73

73:                                               ; preds = %72
  %74 = load ptr, ptr %7, align 8
  %75 = getelementptr inbounds nuw %struct.slurm_msg, ptr %74, i32 0, i32 13
  %76 = load ptr, ptr %75, align 8
  %77 = load ptr, ptr @dir, align 8
  %78 = call i32 @write_configs_to_conf_cache(ptr noundef %76, ptr noundef %77)
  %79 = icmp ne i32 %78, 0
  br i1 %79, label %80, label %82

80:                                               ; preds = %73
  %81 = call i32 (ptr, ...) @error(ptr noundef @.str.55, ptr noundef @__func__._on_msg)
  br label %82

82:                                               ; preds = %80, %73
  br label %83

83:                                               ; preds = %82
  call void @llvm.lifetime.start.p0(i64 8, ptr %10) #10
  call void @llvm.lifetime.start.p0(i64 56, ptr %11) #10
  call void @llvm.lifetime.start.p0(i64 4, ptr %12) #10
  br label %84

84:                                               ; preds = %83
  call void @llvm.lifetime.start.p0(i64 4, ptr %13) #10
  %85 = call i32 @pthread_attr_init(ptr noundef %11) #10
  store i32 %85, ptr %13, align 4
  %86 = load i32, ptr %13, align 4
  %87 = icmp ne i32 %86, 0
  br i1 %87, label %88, label %91

88:                                               ; preds = %84
  %89 = load i32, ptr %13, align 4
  %90 = call ptr @__errno_location() #13
  store i32 %89, ptr %90, align 4
  call void (ptr, ...) @fatal(ptr noundef @.str.28) #11
  unreachable

91:                                               ; preds = %84
  %92 = call i32 @pthread_attr_setscope(ptr noundef %11, i32 noundef 0) #10
  store i32 %92, ptr %13, align 4
  %93 = load i32, ptr %13, align 4
  %94 = icmp ne i32 %93, 0
  br i1 %94, label %95, label %99

95:                                               ; preds = %91
  %96 = load i32, ptr %13, align 4
  %97 = call ptr @__errno_location() #13
  store i32 %96, ptr %97, align 4
  %98 = call i32 (ptr, ...) @error(ptr noundef @.str.29)
  br label %99

99:                                               ; preds = %95, %91
  %100 = call i32 @pthread_attr_setstacksize(ptr noundef %11, i64 noundef 1048576) #10
  store i32 %100, ptr %13, align 4
  %101 = load i32, ptr %13, align 4
  %102 = icmp ne i32 %101, 0
  br i1 %102, label %103, label %107

103:                                              ; preds = %99
  %104 = load i32, ptr %13, align 4
  %105 = call ptr @__errno_location() #13
  store i32 %104, ptr %105, align 4
  %106 = call i32 (ptr, ...) @error(ptr noundef @.str.30)
  br label %107

107:                                              ; preds = %103, %99
  call void @llvm.lifetime.end.p0(i64 4, ptr %13) #10
  br label %108

108:                                              ; preds = %107
  br label %109

109:                                              ; preds = %108
  %110 = call i32 @pthread_attr_setdetachstate(ptr noundef %11, i32 noundef 1) #10
  store i32 %110, ptr %12, align 4
  %111 = load i32, ptr %12, align 4
  %112 = icmp ne i32 %111, 0
  br i1 %112, label %113, label %116

113:                                              ; preds = %109
  %114 = load i32, ptr %12, align 4
  %115 = call ptr @__errno_location() #13
  store i32 %114, ptr %115, align 4
  call void (ptr, ...) @fatal(ptr noundef @.str.31, ptr noundef @__func__._on_msg) #11
  unreachable

116:                                              ; preds = %109
  %117 = call i32 @pthread_create(ptr noundef %10, ptr noundef %11, ptr noundef @_try_to_reconfig, ptr noundef null) #10
  store i32 %117, ptr %12, align 4
  %118 = load i32, ptr %12, align 4
  %119 = icmp ne i32 %118, 0
  br i1 %119, label %120, label %123

120:                                              ; preds = %116
  %121 = load i32, ptr %12, align 4
  %122 = call ptr @__errno_location() #13
  store i32 %121, ptr %122, align 4
  call void (ptr, ...) @fatal(ptr noundef @.str.32, ptr noundef @__func__._on_msg) #11
  unreachable

123:                                              ; preds = %116
  br label %124

124:                                              ; preds = %123
  call void @llvm.lifetime.start.p0(i64 4, ptr %14) #10
  %125 = call i32 @pthread_attr_destroy(ptr noundef %11) #10
  store i32 %125, ptr %14, align 4
  %126 = load i32, ptr %14, align 4
  %127 = icmp ne i32 %126, 0
  br i1 %127, label %128, label %132

128:                                              ; preds = %124
  %129 = load i32, ptr %14, align 4
  %130 = call ptr @__errno_location() #13
  store i32 %129, ptr %130, align 4
  %131 = call i32 (ptr, ...) @error(ptr noundef @.str.33)
  br label %132

132:                                              ; preds = %128, %124
  call void @llvm.lifetime.end.p0(i64 4, ptr %14) #10
  br label %133

133:                                              ; preds = %132
  br label %134

134:                                              ; preds = %133
  call void @llvm.lifetime.end.p0(i64 4, ptr %12) #10
  call void @llvm.lifetime.end.p0(i64 56, ptr %11) #10
  call void @llvm.lifetime.end.p0(i64 8, ptr %10) #10
  br label %135

135:                                              ; preds = %134
  br label %144

136:                                              ; preds = %60
  %137 = load ptr, ptr %6, align 8
  %138 = call ptr @conmgr_fd_get_name(ptr noundef %137)
  %139 = load ptr, ptr %7, align 8
  %140 = getelementptr inbounds nuw %struct.slurm_msg, ptr %139, i32 0, i32 16
  %141 = load i16, ptr %140, align 4
  %142 = zext i16 %141 to i32
  %143 = call i32 (ptr, ...) @error(ptr noundef @.str.64, ptr noundef @__func__._on_msg, ptr noundef %138, i32 noundef %142)
  br label %144

144:                                              ; preds = %136, %135
  %145 = load ptr, ptr %7, align 8
  call void @slurm_free_msg(ptr noundef %145)
  %146 = load ptr, ptr %6, align 8
  call void @conmgr_queue_close_fd(ptr noundef %146)
  store i32 0, ptr %5, align 4
  br label %147

147:                                              ; preds = %144, %45, %30, %17
  %148 = load i32, ptr %5, align 4
  ret i32 %148
}