; Function Attrs: nounwind uwtable
define internal noundef i32 @_on_msg(ptr noundef %0, ptr noundef %1, i32 noundef %2, ptr readnone captures(none) %3) #0 {
  %5 = alloca i64, align 8
  %6 = alloca %union.pthread_attr_t, align 8
  %.not = icmp eq i32 %2, 0
  br i1 %.not, label %11, label %7

7:                                                ; preds = %4
  %8 = tail call ptr @conmgr_fd_get_name(ptr noundef %0) #15
  %9 = tail call ptr @slurm_strerror(i32 noundef %2) #15
  %10 = tail call i32 (ptr, ...) @error(ptr noundef nonnull @.str.60, ptr noundef nonnull @__func__._on_msg, ptr noundef %8, ptr noundef %9) #15
  tail call void @slurm_free_msg(ptr noundef %1) #15
  br label %80

11:                                               ; preds = %4
  %12 = getelementptr inbounds nuw i8, ptr %1, i64 148
  %13 = load i8, ptr %12, align 4, !range !14, !noundef !15
  %14 = trunc nuw i8 %13 to i1
  br i1 %14, label %21, label %15

15:                                               ; preds = %11
  %16 = tail call ptr @conmgr_fd_get_name(ptr noundef %0) #15
  %17 = getelementptr inbounds nuw i8, ptr %1, i64 212
  %18 = load i16, ptr %17, align 4
  %19 = tail call ptr @rpc_num2string(i16 noundef zeroext %18) #15
  %20 = tail call i32 (ptr, ...) @error(ptr noundef nonnull @.str.61, ptr noundef nonnull @__func__._on_msg, ptr noundef %16, ptr noundef %19) #15
  tail call void @slurm_free_msg(ptr noundef nonnull %1) #15
  br label %80

21:                                               ; preds = %11
  %22 = getelementptr inbounds nuw i8, ptr %1, i64 140
  %23 = load i32, ptr %22, align 4
  %24 = load i32, ptr getelementptr inbounds nuw (i8, ptr @slurm_conf, i64 1152), align 8
  %.not39 = icmp eq i32 %23, %24
  br i1 %.not39, label %33, label %25

25:                                               ; preds = %21
  %26 = tail call ptr @conmgr_fd_get_name(ptr noundef %0) #15
  %27 = getelementptr inbounds nuw i8, ptr %1, i64 212
  %28 = load i16, ptr %27, align 4
  %29 = tail call ptr @rpc_num2string(i16 noundef zeroext %28) #15
  %30 = load i32, ptr %22, align 4
  %31 = load i32, ptr getelementptr inbounds nuw (i8, ptr @slurm_conf, i64 1152), align 8
  %32 = tail call i32 (ptr, ...) @error(ptr noundef nonnull @.str.62, ptr noundef nonnull @__func__._on_msg, ptr noundef %26, ptr noundef %29, i32 noundef %30, i32 noundef %31) #15
  tail call void @slurm_free_msg(ptr noundef nonnull %1) #15
  br label %80

33:                                               ; preds = %21
  %34 = getelementptr inbounds nuw i8, ptr %1, i64 212
  %35 = load i16, ptr %34, align 4
  %cond = icmp eq i16 %35, 1006
  br i1 %cond, label %36, label %74

36:                                               ; preds = %33
  %37 = tail call i32 @get_log_level() #15
  %38 = icmp sgt i32 %37, 2
  br i1 %38, label %39, label %40

39:                                               ; preds = %36
  tail call void (i32, ptr, ...) @log_var(i32 noundef 3, ptr noundef nonnull @.str.63) #15
  br label %40

40:                                               ; preds = %39, %36
  %41 = getelementptr inbounds nuw i8, ptr %1, i64 200
  %42 = load ptr, ptr %41, align 8
  %43 = tail call i32 @write_configs_to_conf_cache(ptr noundef %42, ptr noundef nonnull @.str.57) #15
  %.not40 = icmp eq i32 %43, 0
  br i1 %.not40, label %46, label %44

44:                                               ; preds = %40
  %45 = tail call i32 (ptr, ...) @error(ptr noundef nonnull @.str.55, ptr noundef nonnull @__func__._on_msg) #15
  br label %46

46:                                               ; preds = %40, %44
  call void @llvm.lifetime.start.p0(i64 8, ptr nonnull %5) #15
  call void @llvm.lifetime.start.p0(i64 56, ptr nonnull %6) #15
  %47 = call i32 @pthread_attr_init(ptr noundef nonnull %6) #15
  %.not41 = icmp eq i32 %47, 0
  br i1 %.not41, label %50, label %48

48:                                               ; preds = %46
  %49 = tail call ptr @__errno_location() #18
  store i32 %47, ptr %49, align 4
  call void (ptr, ...) @fatal(ptr noundef nonnull @.str.28) #16
  unreachable

50:                                               ; preds = %46
  %51 = call i32 @pthread_attr_setscope(ptr noundef nonnull %6, i32 noundef 0) #15
  %.not42 = icmp eq i32 %51, 0
  br i1 %.not42, label %55, label %52

52:                                               ; preds = %50
  %53 = tail call ptr @__errno_location() #18
  store i32 %51, ptr %53, align 4
  %54 = call i32 (ptr, ...) @error(ptr noundef nonnull @.str.29) #15
  br label %55

55:                                               ; preds = %52, %50
  %56 = call i32 @pthread_attr_setstacksize(ptr noundef nonnull %6, i64 noundef 1048576) #15
  %.not43 = icmp eq i32 %56, 0
  br i1 %.not43, label %60, label %57

57:                                               ; preds = %55
  %58 = tail call ptr @__errno_location() #18
  store i32 %56, ptr %58, align 4
  %59 = call i32 (ptr, ...) @error(ptr noundef nonnull @.str.30) #15
  br label %60

60:                                               ; preds = %57, %55
  %61 = call i32 @pthread_attr_setdetachstate(ptr noundef nonnull %6, i32 noundef 1) #15
  %.not44 = icmp eq i32 %61, 0
  br i1 %.not44, label %64, label %62

62:                                               ; preds = %60
  %63 = tail call ptr @__errno_location() #18
  store i32 %61, ptr %63, align 4
  call void (ptr, ...) @fatal(ptr noundef nonnull @.str.31, ptr noundef nonnull @__func__._on_msg) #16
  unreachable

64:                                               ; preds = %60
  %65 = call i32 @pthread_create(ptr noundef nonnull %5, ptr noundef nonnull %6, ptr noundef nonnull @_try_to_reconfig, ptr noundef null) #15
  %.not45 = icmp eq i32 %65, 0
  br i1 %.not45, label %68, label %66

66:                                               ; preds = %64
  %67 = tail call ptr @__errno_location() #18
  store i32 %65, ptr %67, align 4
  call void (ptr, ...) @fatal(ptr noundef nonnull @.str.32, ptr noundef nonnull @__func__._on_msg) #16
  unreachable

68:                                               ; preds = %64
  %69 = call i32 @pthread_attr_destroy(ptr noundef nonnull %6) #15
  %.not46 = icmp eq i32 %69, 0
  br i1 %.not46, label %73, label %70

70:                                               ; preds = %68
  %71 = tail call ptr @__errno_location() #18
  store i32 %69, ptr %71, align 4
  %72 = call i32 (ptr, ...) @error(ptr noundef nonnull @.str.33) #15
  br label %73

73:                                               ; preds = %70, %68
  call void @llvm.lifetime.end.p0(i64 56, ptr nonnull %6) #15
  call void @llvm.lifetime.end.p0(i64 8, ptr nonnull %5) #15
  br label %79

74:                                               ; preds = %33
  %75 = tail call ptr @conmgr_fd_get_name(ptr noundef %0) #15
  %76 = load i16, ptr %34, align 4
  %77 = zext i16 %76 to i32
  %78 = tail call i32 (ptr, ...) @error(ptr noundef nonnull @.str.64, ptr noundef nonnull @__func__._on_msg, ptr noundef %75, i32 noundef %77) #15
  br label %79

79:                                               ; preds = %74, %73
  call void @slurm_free_msg(ptr noundef nonnull %1) #15
  call void @conmgr_queue_close_fd(ptr noundef %0) #15
  br label %80

80:                                               ; preds = %79, %25, %15, %7
  %.0 = phi i32 [ %2, %7 ], [ 1007, %25 ], [ 0, %79 ], [ 1007, %15 ]
  ret i32 %.0
}